target datalayout = "e-m:e-p270:32:32-p271:32:32-p272:64:64-i64:64-i128:128-f80:128-n8:16:32:64-S128"
target triple = "x86_64-pc-linux-gnu"

%struct.IMapEntry_s = type { %struct.dtlink_s_, %struct.dtlink_s_, i64, ptr }
%struct.dtlink_s_ = type { ptr, %union.anon }
%union.anon = type { ptr }
%struct.Agraph_s = type { %struct.Agobj_s, %struct.Agdesc_s, %struct.dtlink_s_, %struct.dtlink_s_, ptr, ptr, ptr, ptr, ptr, ptr, ptr, ptr, ptr }
%struct.Agobj_s = type { %struct.Agtag_s, ptr }
%struct.Agtag_s = type { i32, i64 }
%struct.Agdesc_s = type { i8, [3 x i8] }
%struct.Agclos_s = type { %struct.Agdisc_s, %struct.Agdstate_s, ptr, [3 x i64], ptr, [3 x ptr], [3 x ptr] }
%struct.Agdisc_s = type { ptr, ptr }
%struct.Agdstate_s = type { ptr }
%struct.dt_s_ = type { ptr, ptr, %struct.Dtdata_t, ptr, i32, ptr, ptr, ptr }
%struct.Dtdata_t = type { i32, ptr, %union.anon.0, i32, i32, i32 }
%union.anon.0 = type { ptr }

@Ag_G_global = external global ptr, align 8

; Function Attrs: nounwind uwtable
define internal ptr @find_isym(ptr noundef %0, i32 noundef %1, i64 noundef %2) #0 {
  %4 = alloca ptr, align 8
  %5 = alloca i32, align 4
  %6 = alloca i64, align 8
  %7 = alloca ptr, align 8
  %8 = alloca ptr, align 8
  %9 = alloca %struct.IMapEntry_s, align 8
  store ptr %0, ptr %4, align 8, !tbaa !3
  store i32 %1, ptr %5, align 4, !tbaa !8
  store i64 %2, ptr %6, align 8, !tbaa !36
  call void @llvm.lifetime.start.p0(i64 8, ptr %7) #8
  call void @llvm.lifetime.start.p0(i64 8, ptr %8) #8
  call void @llvm.lifetime.start.p0(i64 48, ptr %9) #8
  %10 = load i32, ptr %5, align 4, !tbaa !8
  %11 = icmp eq i32 %10, 3
  br i1 %11, label %12, label %13

12:                                               ; preds = %3
  store i32 2, ptr %5, align 4, !tbaa !8
  br label %13

13:                                               ; preds = %12, %3
  %14 = load ptr, ptr %4, align 8, !tbaa !3
  %15 = getelementptr inbounds nuw %struct.Agraph_s, ptr %14, i32 0, i32 12
  %16 = load ptr, ptr %15, align 8, !tbaa !14
  %17 = getelementptr inbounds nuw %struct.Agclos_s, ptr %16, i32 0, i32 6
  %18 = load i32, ptr %5, align 4, !tbaa !8
  %19 = sext i32 %18 to i64
  %20 = getelementptr inbounds [3 x ptr], ptr %17, i64 0, i64 %19
  %21 = load ptr, ptr %20, align 8, !tbaa !26
  store ptr %21, ptr %7, align 8, !tbaa !26
  %22 = icmp ne ptr %21, null
  br i1 %22, label %23, label %31

23:                                               ; preds = %13
  %24 = load i64, ptr %6, align 8, !tbaa !36
  %25 = getelementptr inbounds nuw %struct.IMapEntry_s, ptr %9, i32 0, i32 2
  store i64 %24, ptr %25, align 8, !tbaa !35
  %26 = load ptr, ptr %7, align 8, !tbaa !26
  %27 = getelementptr inbounds nuw %struct.dt_s_, ptr %26, i32 0, i32 0
  %28 = load ptr, ptr %27, align 8, !tbaa !29
  %29 = load ptr, ptr %7, align 8, !tbaa !26
  %30 = call ptr %28(ptr noundef %29, ptr noundef %9, i32 noundef 4)
  store ptr %30, ptr %8, align 8, !tbaa !33
  br label %32

31:                                               ; preds = %13
  store ptr null, ptr %8, align 8, !tbaa !33
  br label %32

32:                                               ; preds = %31, %23
  %33 = load ptr, ptr %8, align 8, !tbaa !33
  call void @llvm.lifetime.end.p0(i64 48, ptr %9) #8
  call void @llvm.lifetime.end.p0(i64 8, ptr %8) #8
  call void @llvm.lifetime.end.p0(i64 8, ptr %7) #8
  ret ptr %33
}

; Function Attrs: nounwind uwtable
define i32 @aginternalmapdelete(ptr noundef %0, i32 noundef %1, i64 noundef %2) #0 {
  %4 = alloca i32, align 4
  %5 = alloca ptr, align 8
  %6 = alloca i32, align 4
  %7 = alloca i64, align 8
  %8 = alloca ptr, align 8
  %9 = alloca i32, align 4
  store ptr %0, ptr %5, align 8, !tbaa !3
  store i32 %1, ptr %6, align 4, !tbaa !8
  store i64 %2, ptr %7, align 8, !tbaa !36
  call void @llvm.lifetime.start.p0(i64 8, ptr %8) #8
  %10 = load i32, ptr %6, align 4, !tbaa !8
  %11 = icmp eq i32 %10, 3
  br i1 %11, label %12, label %13

12:                                               ; preds = %3
  store i32 2, ptr %6, align 4, !tbaa !8
  br label %13

13:                                               ; preds = %12, %3
  %14 = load ptr, ptr %5, align 8, !tbaa !3
  %15 = load i32, ptr %6, align 4, !tbaa !8
  %16 = load i64, ptr %7, align 8, !tbaa !36
  %17 = call ptr @find_isym(ptr noundef %14, i32 noundef %15, i64 noundef %16)
  store ptr %17, ptr %8, align 8, !tbaa !33
  %18 = icmp ne ptr %17, null
  br i1 %18, label %19, label %66

19:                                               ; preds = %13
  %20 = load ptr, ptr %5, align 8, !tbaa !3
  %21 = getelementptr inbounds nuw %struct.Agraph_s, ptr %20, i32 0, i32 12
  %22 = load ptr, ptr %21, align 8, !tbaa !14
  %23 = getelementptr inbounds nuw %struct.Agclos_s, ptr %22, i32 0, i32 5
  %24 = load i32, ptr %6, align 4, !tbaa !8
  %25 = sext i32 %24 to i64
  %26 = getelementptr inbounds [3 x ptr], ptr %23, i64 0, i64 %25
  %27 = load ptr, ptr %26, align 8, !tbaa !26
  %28 = getelementptr inbounds nuw %struct.dt_s_, ptr %27, i32 0, i32 0
  %29 = load ptr, ptr %28, align 8, !tbaa !29
  %30 = load ptr, ptr %5, align 8, !tbaa !3
  %31 = getelementptr inbounds nuw %struct.Agraph_s, ptr %30, i32 0, i32 12
  %32 = load ptr, ptr %31, align 8, !tbaa !14
  %33 = getelementptr inbounds nuw %struct.Agclos_s, ptr %32, i32 0, i32 5
  %34 = load i32, ptr %6, align 4, !tbaa !8
  %35 = sext i32 %34 to i64
  %36 = getelementptr inbounds [3 x ptr], ptr %33, i64 0, i64 %35
  %37 = load ptr, ptr %36, align 8, !tbaa !26
  %38 = load ptr, ptr %8, align 8, !tbaa !33
  %39 = call ptr %29(ptr noundef %37, ptr noundef %38, i32 noundef 2)
  %40 = load ptr, ptr %5, align 8, !tbaa !3
  %41 = getelementptr inbounds nuw %struct.Agraph_s, ptr %40, i32 0, i32 12
  %42 = load ptr, ptr %41, align 8, !tbaa !14
  %43 = getelementptr inbounds nuw %struct.Agclos_s, ptr %42, i32 0, i32 6
  %44 = load i32, ptr %6, align 4, !tbaa !8
  %45 = sext i32 %44 to i64
  %46 = getelementptr inbounds [3 x ptr], ptr %43, i64 0, i64 %45
  %47 = load ptr, ptr %46, align 8, !tbaa !26
  %48 = getelementptr inbounds nuw %struct.dt_s_, ptr %47, i32 0, i32 0
  %49 = load ptr, ptr %48, align 8, !tbaa !29
  %50 = load ptr, ptr %5, align 8, !tbaa !3
  %51 = getelementptr inbounds nuw %struct.Agraph_s, ptr %50, i32 0, i32 12
  %52 = load ptr, ptr %51, align 8, !tbaa !14
  %53 = getelementptr inbounds nuw %struct.Agclos_s, ptr %52, i32 0, i32 6
  %54 = load i32, ptr %6, align 4, !tbaa !8
  %55 = sext i32 %54 to i64
  %56 = getelementptr inbounds [3 x ptr], ptr %53, i64 0, i64 %55
  %57 = load ptr, ptr %56, align 8, !tbaa !26
  %58 = load ptr, ptr %8, align 8, !tbaa !33
  %59 = call ptr %49(ptr noundef %57, ptr noundef %58, i32 noundef 2)
  %60 = load ptr, ptr %5, align 8, !tbaa !3
  %61 = load ptr, ptr %8, align 8, !tbaa !33
  %62 = getelementptr inbounds nuw %struct.IMapEntry_s, ptr %61, i32 0, i32 3
  %63 = load ptr, ptr %62, align 8, !tbaa !27
  %64 = call i32 @agstrfree(ptr noundef %60, ptr noundef %63, i1 noundef zeroext false)
  %65 = load ptr, ptr %8, align 8, !tbaa !33
  call void @free(ptr noundef %65) #8
  store i32 1, ptr %4, align 4
  store i32 1, ptr %9, align 4
  br label %67

66:                                               ; preds = %13
  store i32 0, ptr %4, align 4
  store i32 1, ptr %9, align 4
  br label %67

67:                                               ; preds = %66, %19
  call void @llvm.lifetime.end.p0(i64 8, ptr %8) #8
  %68 = load i32, ptr %4, align 4
  ret i32 %68
}

; Function Attrs: nounwind uwtable
define void @aginternalmapclearlocalnames(ptr noundef %0) #0 {
  %2 = alloca ptr, align 8
  %3 = alloca i32, align 4
  %4 = alloca ptr, align 8
  %5 = alloca ptr, align 8
  %6 = alloca ptr, align 8
  store ptr %0, ptr %2, align 8, !tbaa !3
  call void @llvm.lifetime.start.p0(i64 4, ptr %3) #8
  call void @llvm.lifetime.start.p0(i64 8, ptr %4) #8
  call void @llvm.lifetime.start.p0(i64 8, ptr %5) #8
  call void @llvm.lifetime.start.p0(i64 8, ptr %6) #8
  %7 = load ptr, ptr %2, align 8, !tbaa !3
  store ptr %7, ptr @Ag_G_global, align 8, !tbaa !3
  %8 = load ptr, ptr %2, align 8, !tbaa !3
  %9 = getelementptr inbounds nuw %struct.Agraph_s, ptr %8, i32 0, i32 12
  %10 = load ptr, ptr %9, align 8, !tbaa !14
  %11 = getelementptr inbounds nuw %struct.Agclos_s, ptr %10, i32 0, i32 5
  %12 = getelementptr inbounds [3 x ptr], ptr %11, i64 0, i64 0
  store ptr %12, ptr %6, align 8, !tbaa !38
  store i32 0, ptr %3, align 4, !tbaa !8
  br label %13

13:                                               ; preds = %74, %1
  %14 = load i32, ptr %3, align 4, !tbaa !8
  %15 = icmp slt i32 %14, 3
  br i1 %15, label %16, label %77

16:                                               ; preds = %13
  %17 = load ptr, ptr %6, align 8, !tbaa !38
  %18 = load i32, ptr %3, align 4, !tbaa !8
  %19 = sext i32 %18 to i64
  %20 = getelementptr inbounds ptr, ptr %17, i64 %19
  %21 = load ptr, ptr %20, align 8, !tbaa !26
  %22 = icmp ne ptr %21, null
  br i1 %22, label %23, label %73

23:                                               ; preds = %16
  %24 = load ptr, ptr %6, align 8, !tbaa !38
  %25 = load i32, ptr %3, align 4, !tbaa !8
  %26 = sext i32 %25 to i64
  %27 = getelementptr inbounds ptr, ptr %24, i64 %26
  %28 = load ptr, ptr %27, align 8, !tbaa !26
  %29 = getelementptr inbounds nuw %struct.dt_s_, ptr %28, i32 0, i32 0
  %30 = load ptr, ptr %29, align 8, !tbaa !29
  %31 = load ptr, ptr %6, align 8, !tbaa !38
  %32 = load i32, ptr %3, align 4, !tbaa !8
  %33 = sext i32 %32 to i64
  %34 = getelementptr inbounds ptr, ptr %31, i64 %33
  %35 = load ptr, ptr %34, align 8, !tbaa !26
  %36 = call ptr %30(ptr noundef %35, ptr noundef null, i32 noundef 128)
  store ptr %36, ptr %4, align 8, !tbaa !33
  br label %37

37:                                               ; preds = %70, %23
  %38 = load ptr, ptr %4, align 8, !tbaa !33
  %39 = icmp ne ptr %38, null
  br i1 %39, label %40, label %72

40:                                               ; preds = %37
  %41 = load ptr, ptr %6, align 8, !tbaa !38
  %42 = load i32, ptr %3, align 4, !tbaa !8
  %43 = sext i32 %42 to i64
  %44 = getelementptr inbounds ptr, ptr %41, i64 %43
  %45 = load ptr, ptr %44, align 8, !tbaa !26
  %46 = getelementptr inbounds nuw %struct.dt_s_, ptr %45, i32 0, i32 0
  %47 = load ptr, ptr %46, align 8, !tbaa !29
  %48 = load ptr, ptr %6, align 8, !tbaa !38
  %49 = load i32, ptr %3, align 4, !tbaa !8
  %50 = sext i32 %49 to i64
  %51 = getelementptr inbounds ptr, ptr %48, i64 %50
  %52 = load ptr, ptr %51, align 8, !tbaa !26
  %53 = load ptr, ptr %4, align 8, !tbaa !33
  %54 = call ptr %47(ptr noundef %52, ptr noundef %53, i32 noundef 8)
  store ptr %54, ptr %5, align 8, !tbaa !33
  %55 = load ptr, ptr %4, align 8, !tbaa !33
  %56 = getelementptr inbounds nuw %struct.IMapEntry_s, ptr %55, i32 0, i32 3
  %57 = load ptr, ptr %56, align 8, !tbaa !27
  %58 = getelementptr inbounds i8, ptr %57, i64 0
  %59 = load i8, ptr %58, align 1, !tbaa !40
  %60 = sext i8 %59 to i32
  %61 = icmp eq i32 %60, 37
  br i1 %61, label %62, label %69

62:                                               ; preds = %40
  %63 = load ptr, ptr %2, align 8, !tbaa !3
  %64 = load i32, ptr %3, align 4, !tbaa !8
  %65 = load ptr, ptr %4, align 8, !tbaa !33
  %66 = getelementptr inbounds nuw %struct.IMapEntry_s, ptr %65, i32 0, i32 2
  %67 = load i64, ptr %66, align 8, !tbaa !35
  %68 = call i32 @aginternalmapdelete(ptr noundef %63, i32 noundef %64, i64 noundef %67)
  br label %69

69:                                               ; preds = %62, %40
  br label %70

70:                                               ; preds = %69
  %71 = load ptr, ptr %5, align 8, !tbaa !33
  store ptr %71, ptr %4, align 8, !tbaa !33
  br label %37, !llvm.loop !41

72:                                               ; preds = %37
  br label %73

73:                                               ; preds = %72, %16
  br label %74

74:                                               ; preds = %73
  %75 = load i32, ptr %3, align 4, !tbaa !8
  %76 = add nsw i32 %75, 1
  store i32 %76, ptr %3, align 4, !tbaa !8
  br label %13, !llvm.loop !43

77:                                               ; preds = %13
  call void @llvm.lifetime.end.p0(i64 8, ptr %6) #8
  call void @llvm.lifetime.end.p0(i64 8, ptr %5) #8
  call void @llvm.lifetime.end.p0(i64 8, ptr %4) #8
  call void @llvm.lifetime.end.p0(i64 4, ptr %3) #8
  ret void
}