; Function Attrs: nounwind uwtable
define void @aginternalmapclearlocalnames(ptr noundef %0) local_unnamed_addr #0 {
  %2 = alloca %struct.IMapEntry_s, align 8
  store ptr %0, ptr @Ag_G_global, align 8, !tbaa !33
  %3 = getelementptr inbounds nuw i8, ptr %0, i64 128
  %4 = load ptr, ptr %3, align 8, !tbaa !3
  %5 = getelementptr inbounds nuw i8, ptr %4, i64 64
  %6 = getelementptr inbounds nuw i8, ptr %2, i64 32
  br label %7

7:                                                ; preds = %1, %.loopexit
  %indvars.iv = phi i64 [ 0, %1 ], [ %indvars.iv.next, %.loopexit ]
  %8 = getelementptr inbounds nuw ptr, ptr %5, i64 %indvars.iv
  %9 = load ptr, ptr %8, align 8, !tbaa !20
  %.not = icmp eq ptr %9, null
  br i1 %.not, label %.loopexit, label %10

10:                                               ; preds = %7
  %11 = load ptr, ptr %9, align 8, !tbaa !24
  %12 = call ptr %11(ptr noundef nonnull %9, ptr noundef null, i32 noundef 128) #10
  %.not2223 = icmp eq ptr %12, null
  br i1 %.not2223, label %.loopexit, label %.lr.ph

.lr.ph:                                           ; preds = %10, %aginternalmapdelete.exit
  %.02024 = phi ptr [ %15, %aginternalmapdelete.exit ], [ %12, %10 ]
  %13 = load ptr, ptr %8, align 8, !tbaa !20
  %14 = load ptr, ptr %13, align 8, !tbaa !24
  %15 = call ptr %14(ptr noundef nonnull %13, ptr noundef nonnull %.02024, i32 noundef 8) #10
  %16 = getelementptr inbounds nuw i8, ptr %.02024, i64 40
  %17 = load ptr, ptr %16, align 8, !tbaa !21
  %18 = load i8, ptr %17, align 1, !tbaa !34
  %19 = icmp eq i8 %18, 37
  br i1 %19, label %20, label %aginternalmapdelete.exit

20:                                               ; preds = %.lr.ph
  %21 = getelementptr inbounds nuw i8, ptr %.02024, i64 32
  %22 = load i64, ptr %21, align 8, !tbaa !28
  %.val.i = load ptr, ptr %3, align 8, !tbaa !3
  call void @llvm.lifetime.start.p0(i64 48, ptr nonnull %2) #10
  %23 = getelementptr inbounds nuw i8, ptr %.val.i, i64 88
  %24 = getelementptr inbounds nuw [3 x ptr], ptr %23, i64 0, i64 %indvars.iv
  %25 = load ptr, ptr %24, align 8, !tbaa !20
  %.not.i.i = icmp eq ptr %25, null
  br i1 %.not.i.i, label %find_isym.exit.thread.i, label %find_isym.exit.i

find_isym.exit.thread.i:                          ; preds = %20
  call void @llvm.lifetime.end.p0(i64 48, ptr nonnull %2) #10
  br label %aginternalmapdelete.exit

find_isym.exit.i:                                 ; preds = %20
  store i64 %22, ptr %6, align 8, !tbaa !28
  %26 = load ptr, ptr %25, align 8, !tbaa !24
  %27 = call ptr %26(ptr noundef nonnull %25, ptr noundef nonnull %2, i32 noundef 4) #10
  call void @llvm.lifetime.end.p0(i64 48, ptr nonnull %2) #10
  %.not.i = icmp eq ptr %27, null
  br i1 %.not.i, label %aginternalmapdelete.exit, label %28

28:                                               ; preds = %find_isym.exit.i
  %29 = load ptr, ptr %3, align 8, !tbaa !3
  %30 = getelementptr inbounds nuw i8, ptr %29, i64 64
  %31 = getelementptr inbounds nuw [3 x ptr], ptr %30, i64 0, i64 %indvars.iv
  %32 = load ptr, ptr %31, align 8, !tbaa !20
  %33 = load ptr, ptr %32, align 8, !tbaa !24
  %34 = call ptr %33(ptr noundef nonnull %32, ptr noundef nonnull %27, i32 noundef 2) #10
  %35 = load ptr, ptr %3, align 8, !tbaa !3
  %36 = getelementptr inbounds nuw i8, ptr %35, i64 88
  %37 = getelementptr inbounds nuw [3 x ptr], ptr %36, i64 0, i64 %indvars.iv
  %38 = load ptr, ptr %37, align 8, !tbaa !20
  %39 = load ptr, ptr %38, align 8, !tbaa !24
  %40 = call ptr %39(ptr noundef nonnull %38, ptr noundef nonnull %27, i32 noundef 2) #10
  %41 = getelementptr inbounds nuw i8, ptr %27, i64 40
  %42 = load ptr, ptr %41, align 8, !tbaa !21
  %43 = call i32 @agstrfree(ptr noundef nonnull %0, ptr noundef %42, i1 noundef zeroext false) #10
  call void @free(ptr noundef nonnull %27) #10
  br label %aginternalmapdelete.exit

aginternalmapdelete.exit:                         ; preds = %28, %find_isym.exit.i, %find_isym.exit.thread.i, %.lr.ph
  %.not22 = icmp eq ptr %15, null
  br i1 %.not22, label %.loopexit, label %.lr.ph, !llvm.loop !35

.loopexit:                                        ; preds = %aginternalmapdelete.exit, %10, %7
  %indvars.iv.next = add nuw nsw i64 %indvars.iv, 1
  %exitcond.not = icmp eq i64 %indvars.iv.next, 3
  br i1 %exitcond.not, label %44, label %7, !llvm.loop !37

44:                                               ; preds = %.loopexit
  ret void
}